; Function Attrs: mustprogress uwtable
define hidden void @_ZN2bv6solver9push_coreEv(ptr noundef nonnull align 8 dereferenceable(640) %this) unnamed_addr #3 align 2 {
entry:
  tail call void @_ZN3euf13th_euf_solver9push_coreEv(ptr noundef nonnull align 8 dereferenceable(108) %this)
  %m_prop_queue_lim = getelementptr inbounds i8, ptr %this, i64 544
  %m_prop_queue = getelementptr inbounds i8, ptr %this, i64 536
  %0 = load ptr, ptr %m_prop_queue, align 8
  %cmp.i = icmp eq ptr %0, null
  br i1 %cmp.i, label %_ZNK6vectorIN2bv6solver16propagation_itemELb0EjE4sizeEv.exit, label %if.end.i

if.end.i:                                         ; preds = %entry
  %arrayidx.i = getelementptr inbounds i8, ptr %0, i64 -4
  %1 = load i32, ptr %arrayidx.i, align 4
  br label %_ZNK6vectorIN2bv6solver16propagation_itemELb0EjE4sizeEv.exit

_ZNK6vectorIN2bv6solver16propagation_itemELb0EjE4sizeEv.exit: ; preds = %entry, %if.end.i
  %retval.0.i = phi i32 [ %1, %if.end.i ], [ 0, %entry ]
  %2 = load ptr, ptr %m_prop_queue_lim, align 8
  %cmp.i1 = icmp eq ptr %2, null
  br i1 %cmp.i1, label %if.then.i, label %lor.lhs.false.i

lor.lhs.false.i:                                  ; preds = %_ZNK6vectorIN2bv6solver16propagation_itemELb0EjE4sizeEv.exit
  %arrayidx.i2 = getelementptr inbounds i8, ptr %2, i64 -4
  %3 = load i32, ptr %arrayidx.i2, align 4
  %arrayidx4.i = getelementptr inbounds i8, ptr %2, i64 -8
  %4 = load i32, ptr %arrayidx4.i, align 4
  %cmp5.i = icmp eq i32 %3, %4
  br i1 %cmp5.i, label %if.then.i, label %_ZN6vectorIjLb0EjE9push_backEOj.exit

if.then.i:                                        ; preds = %lor.lhs.false.i, %_ZNK6vectorIN2bv6solver16propagation_itemELb0EjE4sizeEv.exit
  tail call void @_ZN6vectorIjLb0EjE13expand_vectorEv(ptr noundef nonnull align 8 dereferenceable(8) %m_prop_queue_lim)
  %.pre.i = load ptr, ptr %m_prop_queue_lim, align 8
  %arrayidx8.phi.trans.insert.i = getelementptr inbounds i8, ptr %.pre.i, i64 -4
  %.pre1.i = load i32, ptr %arrayidx8.phi.trans.insert.i, align 4
  br label %_ZN6vectorIjLb0EjE9push_backEOj.exit

_ZN6vectorIjLb0EjE9push_backEOj.exit:             ; preds = %lor.lhs.false.i, %if.then.i
  %5 = phi i32 [ %.pre1.i, %if.then.i ], [ %3, %lor.lhs.false.i ]
  %6 = phi ptr [ %.pre.i, %if.then.i ], [ %2, %lor.lhs.false.i ]
  %idx.ext.i = zext i32 %5 to i64
  %add.ptr.i = getelementptr inbounds i32, ptr %6, i64 %idx.ext.i
  store i32 %retval.0.i, ptr %add.ptr.i, align 4
  %7 = load ptr, ptr %m_prop_queue_lim, align 8
  %arrayidx10.i = getelementptr inbounds i8, ptr %7, i64 -4
  %8 = load i32, ptr %arrayidx10.i, align 4
  %inc.i = add i32 %8, 1
  store i32 %inc.i, ptr %arrayidx10.i, align 4
  ret void
}